; Function Attrs: mustprogress uwtable
define noundef double @_ZNK5Ipopt11DenseVector8AsumImplEv(ptr nocapture noundef nonnull readonly align 8 dereferenceable(248) %0) unnamed_addr #0 align 2 {
  %2 = getelementptr inbounds i8, ptr %0, i64 233
  %3 = load i8, ptr %2, align 1
  %4 = and i8 %3, 1
  %.not = icmp eq i8 %4, 0
  %5 = getelementptr inbounds i8, ptr %0, i64 56
  %6 = load ptr, ptr %5, align 8
  %7 = getelementptr inbounds i8, ptr %6, i64 12
  %8 = load i32, ptr %7, align 4
  br i1 %.not, label %15, label %9

9:                                                ; preds = %1
  %10 = sitofp i32 %8 to double
  %11 = getelementptr inbounds i8, ptr %0, i64 240
  %12 = load double, ptr %11, align 8
  %13 = tail call noundef double @llvm.fabs.f64(double %12)
  %14 = fmul double %13, %10
  br label %19

15:                                               ; preds = %1
  %16 = getelementptr inbounds i8, ptr %0, i64 216
  %17 = load ptr, ptr %16, align 8
  %18 = tail call noundef double @_ZN5Ipopt10IpBlasAsumEiPKdi(i32 noundef %8, ptr noundef %17, i32 noundef 1)
  br label %19

19:                                               ; preds = %15, %9
  %.0 = phi double [ %14, %9 ], [ %18, %15 ]
  ret double %.0
}